target datalayout = "e-m:e-p270:32:32-p271:32:32-p272:64:64-i64:64-i128:128-f80:128-n8:16:32:64-S128"
target triple = "x86_64-pc-linux-gnu"

%struct.mbedtls_pk_context = type { ptr, ptr }
%struct.mbedtls_rsa_alt_context = type { ptr, ptr, ptr, ptr }

; Function Attrs: nounwind uwtable
define internal i32 @rsa_alt_sign_wrap(ptr noundef %0, i32 noundef %1, ptr noundef %2, i64 noundef %3, ptr noundef %4, i64 noundef %5, ptr noundef %6, ptr noundef %7, ptr noundef %8) #0 {
  %10 = alloca i32, align 4
  %11 = alloca ptr, align 8
  %12 = alloca i32, align 4
  %13 = alloca ptr, align 8
  %14 = alloca i64, align 8
  %15 = alloca ptr, align 8
  %16 = alloca i64, align 8
  %17 = alloca ptr, align 8
  %18 = alloca ptr, align 8
  %19 = alloca ptr, align 8
  %20 = alloca ptr, align 8
  %21 = alloca i32, align 4
  store ptr %0, ptr %11, align 8, !tbaa !3
  store i32 %1, ptr %12, align 4, !tbaa !13
  store ptr %2, ptr %13, align 8, !tbaa !15
  store i64 %3, ptr %14, align 8, !tbaa !17
  store ptr %4, ptr %15, align 8, !tbaa !15
  store i64 %5, ptr %16, align 8, !tbaa !17
  store ptr %6, ptr %17, align 8, !tbaa !19
  store ptr %7, ptr %18, align 8, !tbaa !21
  store ptr %8, ptr %19, align 8, !tbaa !21
  call void @llvm.lifetime.start.p0(i64 8, ptr %20) #6
  %22 = load ptr, ptr %11, align 8, !tbaa !3
  %23 = getelementptr inbounds nuw %struct.mbedtls_pk_context, ptr %22, i32 0, i32 1
  %24 = load ptr, ptr %23, align 8, !tbaa !8
  store ptr %24, ptr %20, align 8, !tbaa !21
  %25 = load i64, ptr %14, align 8, !tbaa !17
  %26 = icmp ult i64 4294967295, %25
  br i1 %26, label %27, label %28

27:                                               ; preds = %9
  store i32 -16000, ptr %10, align 4
  store i32 1, ptr %21, align 4
  br label %62

28:                                               ; preds = %9
  %29 = load ptr, ptr %20, align 8, !tbaa !21
  %30 = getelementptr inbounds nuw %struct.mbedtls_rsa_alt_context, ptr %29, i32 0, i32 3
  %31 = load ptr, ptr %30, align 8, !tbaa !37
  %32 = load ptr, ptr %20, align 8, !tbaa !21
  %33 = getelementptr inbounds nuw %struct.mbedtls_rsa_alt_context, ptr %32, i32 0, i32 0
  %34 = load ptr, ptr %33, align 8, !tbaa !39
  %35 = call i64 %31(ptr noundef %34)
  %36 = load ptr, ptr %17, align 8, !tbaa !19
  store i64 %35, ptr %36, align 8, !tbaa !17
  %37 = load ptr, ptr %17, align 8, !tbaa !19
  %38 = load i64, ptr %37, align 8, !tbaa !17
  %39 = icmp ugt i64 %38, 1024
  br i1 %39, label %40, label %41

40:                                               ; preds = %28
  store i32 -16000, ptr %10, align 4
  store i32 1, ptr %21, align 4
  br label %62

41:                                               ; preds = %28
  %42 = load ptr, ptr %17, align 8, !tbaa !19
  %43 = load i64, ptr %42, align 8, !tbaa !17
  %44 = load i64, ptr %16, align 8, !tbaa !17
  %45 = icmp ugt i64 %43, %44
  br i1 %45, label %46, label %47

46:                                               ; preds = %41
  store i32 -14464, ptr %10, align 4
  store i32 1, ptr %21, align 4
  br label %62

47:                                               ; preds = %41
  %48 = load ptr, ptr %20, align 8, !tbaa !21
  %49 = getelementptr inbounds nuw %struct.mbedtls_rsa_alt_context, ptr %48, i32 0, i32 2
  %50 = load ptr, ptr %49, align 8, !tbaa !40
  %51 = load ptr, ptr %20, align 8, !tbaa !21
  %52 = getelementptr inbounds nuw %struct.mbedtls_rsa_alt_context, ptr %51, i32 0, i32 0
  %53 = load ptr, ptr %52, align 8, !tbaa !39
  %54 = load ptr, ptr %18, align 8, !tbaa !21
  %55 = load ptr, ptr %19, align 8, !tbaa !21
  %56 = load i32, ptr %12, align 4, !tbaa !13
  %57 = load i64, ptr %14, align 8, !tbaa !17
  %58 = trunc i64 %57 to i32
  %59 = load ptr, ptr %13, align 8, !tbaa !15
  %60 = load ptr, ptr %15, align 8, !tbaa !15
  %61 = call i32 %50(ptr noundef %53, ptr noundef %54, ptr noundef %55, i32 noundef %56, i32 noundef %58, ptr noundef %59, ptr noundef %60)
  store i32 %61, ptr %10, align 4
  store i32 1, ptr %21, align 4
  br label %62

62:                                               ; preds = %47, %46, %40, %27
  call void @llvm.lifetime.end.p0(i64 8, ptr %20) #6
  %63 = load i32, ptr %10, align 4
  ret i32 %63
}