; Function Attrs: nounwind uwtable
define internal i32 @rsa_alt_sign_wrap(ptr noundef readonly captures(none) %0, i32 noundef %1, ptr noundef %2, i64 noundef %3, ptr noundef %4, i64 noundef %5, ptr noundef writeonly captures(none) %6, ptr noundef %7, ptr noundef %8) #0 {
  %10 = getelementptr inbounds nuw i8, ptr %0, i64 8
  %11 = load ptr, ptr %10, align 8, !tbaa !3
  %12 = icmp ugt i64 %3, 4294967295
  br i1 %12, label %27, label %13

13:                                               ; preds = %9
  %14 = getelementptr inbounds nuw i8, ptr %11, i64 24
  %15 = load ptr, ptr %14, align 8, !tbaa !25
  %16 = load ptr, ptr %11, align 8, !tbaa !27
  %17 = tail call i64 %15(ptr noundef %16) #10
  store i64 %17, ptr %6, align 8, !tbaa !9
  %18 = icmp ugt i64 %17, 1024
  br i1 %18, label %27, label %19

19:                                               ; preds = %13
  %20 = icmp ugt i64 %17, %5
  br i1 %20, label %27, label %21

21:                                               ; preds = %19
  %22 = getelementptr inbounds nuw i8, ptr %11, i64 16
  %23 = load ptr, ptr %22, align 8, !tbaa !28
  %24 = load ptr, ptr %11, align 8, !tbaa !27
  %25 = trunc nuw i64 %3 to i32
  %26 = tail call i32 %23(ptr noundef %24, ptr noundef %7, ptr noundef %8, i32 noundef %1, i32 noundef %25, ptr noundef %2, ptr noundef %4) #10
  br label %27

27:                                               ; preds = %19, %13, %9, %21
  %.0 = phi i32 [ %26, %21 ], [ -16000, %9 ], [ -16000, %13 ], [ -14464, %19 ]
  ret i32 %.0
}